; Function Attrs: mustprogress nounwind uwtable
define internal fastcc void @_ZN12_GLOBAL__N_114AggExprEmitter13VisitBinCommaEPKN5clang14BinaryOperatorE(ptr noundef nonnull align 8 dereferenceable(81) %0, ptr nocapture noundef readonly %1) unnamed_addr #0 align 2 {
  %3 = alloca %"class.clang::CodeGen::ApplyDebugLocation", align 8
  %4 = load ptr, ptr %0, align 8
  %5 = getelementptr inbounds nuw i8, ptr %1, i64 16
  %6 = load ptr, ptr %5, align 8
  tail call void @_ZN5clang7CodeGen15CodeGenFunction15EmitIgnoredExprEPKNS_4ExprE(ptr noundef nonnull align 8 dereferenceable(6488) %4, ptr noundef %6) #15
  %7 = getelementptr inbounds i8, ptr %1, i64 24
  %8 = load ptr, ptr %7, align 8
  call void @llvm.lifetime.start.p0(i64 16, ptr nonnull %3)
  %9 = load ptr, ptr %0, align 8
  call void @_ZN5clang7CodeGen18ApplyDebugLocationC1ERNS0_15CodeGenFunctionEPKNS_4ExprE(ptr noundef nonnull align 8 dereferenceable(16) %3, ptr noundef nonnull align 8 dereferenceable(6488) %9, ptr noundef %8) #15
  call fastcc void @_ZN5clang15StmtVisitorBaseISt11add_pointerN12_GLOBAL__N_114AggExprEmitterEvJEE5VisitEPNS_4StmtE(ptr noundef nonnull align 1 dereferenceable(1) %0, ptr noundef %8)
  call void @_ZN5clang7CodeGen18ApplyDebugLocationD1Ev(ptr noundef nonnull align 8 dereferenceable(16) %3) #15
  call void @llvm.lifetime.end.p0(i64 16, ptr nonnull %3)
  ret void
}